target datalayout = "e-m:e-p270:32:32-p271:32:32-p272:64:64-i64:64-i128:128-f80:128-n8:16:32:64-S128"
target triple = "x86_64-pc-linux-gnu"

%struct.expert_field = type { i32, i32 }
%struct._radius_attr_info_t = type { ptr, %union._radius_attr_type_t, i32, i8, i8, ptr, ptr, ptr, i32, i32, i32, i32, i32, i32, ptr }
%union._radius_attr_type_t = type { i32 }
%struct._proto_node = type { ptr, ptr, ptr, ptr, ptr, ptr, ptr }
%struct.field_info = type { ptr, i32, i32, i32, i32, i32, i32, ptr, ptr, ptr, i32, i32 }

@ei_radius_invalid_length = internal global %struct.expert_field zeroinitializer, align 4
@.str.21 = private unnamed_addr constant [41 x i8] c"Not enough room in packet for TLV header\00", align 1
@.str.22 = private unnamed_addr constant [29 x i8] c"TLV too short: length %u < 2\00", align 1
@.str.23 = private unnamed_addr constant [34 x i8] c"Not enough room in packet for TLV\00", align 1
@.str.24 = private unnamed_addr constant [20 x i8] c"TLV: t=%s(%u) l=%u \00", align 1
@show_length = internal global i8 0, align 1
@.str.25 = private unnamed_addr constant [17 x i8] c"%d TLV(s) inside\00", align 1
@.str.106 = private unnamed_addr constant [3 x i8] c": \00", align 1

; Function Attrs: null_pointer_is_valid sspstrong uwtable
define internal void @add_tlv_to_tree(ptr noundef %0, ptr noundef %1, ptr noundef %2, ptr noundef %3, ptr noundef %4, i32 noundef %5, i32 noundef %6) #0 {
  %8 = alloca ptr, align 8
  %9 = alloca ptr, align 8
  %10 = alloca ptr, align 8
  %11 = alloca ptr, align 8
  %12 = alloca ptr, align 8
  %13 = alloca i32, align 4
  %14 = alloca i32, align 4
  store ptr %0, ptr %8, align 8
  store ptr %1, ptr %9, align 8
  store ptr %2, ptr %10, align 8
  store ptr %3, ptr %11, align 8
  store ptr %4, ptr %12, align 8
  store i32 %5, ptr %13, align 4
  store i32 %6, ptr %14, align 4
  %15 = load ptr, ptr %9, align 8
  call void (ptr, ptr, ...) @proto_item_append_text(ptr noundef %15, ptr noundef @.str.106)
  %16 = load ptr, ptr %12, align 8
  %17 = getelementptr inbounds nuw %struct._radius_attr_info_t, ptr %16, i32 0, i32 5
  %18 = load ptr, ptr %17, align 8
  %19 = load ptr, ptr %12, align 8
  %20 = load ptr, ptr %8, align 8
  %21 = load ptr, ptr %10, align 8
  %22 = load ptr, ptr %11, align 8
  %23 = load i32, ptr %14, align 4
  %24 = load i32, ptr %13, align 4
  %25 = load ptr, ptr %9, align 8
  call void %18(ptr noundef %19, ptr noundef %20, ptr noundef %21, ptr noundef %22, i32 noundef %23, i32 noundef %24, ptr noundef %25)
  ret void
}

; Function Attrs: inlinehint nounwind null_pointer_is_valid sspstrong uwtable
define internal void @proto_item_set_generated(ptr noundef %0) #4 {
  %2 = alloca ptr, align 8
  store ptr %0, ptr %2, align 8
  %3 = load ptr, ptr %2, align 8
  %4 = icmp ne ptr %3, null
  br i1 %4, label %5, label %24

5:                                                ; preds = %1
  br label %6

6:                                                ; preds = %5
  %7 = load ptr, ptr %2, align 8
  %8 = getelementptr inbounds nuw %struct._proto_node, ptr %7, i32 0, i32 5
  %9 = load ptr, ptr %8, align 8
  %10 = icmp ne ptr %9, null
  br i1 %10, label %11, label %22

11:                                               ; preds = %6
  %12 = load ptr, ptr %2, align 8
  %13 = getelementptr inbounds nuw %struct._proto_node, ptr %12, i32 0, i32 5
  %14 = load ptr, ptr %13, align 8
  %15 = getelementptr inbounds nuw %struct.field_info, ptr %14, i32 0, i32 6
  %16 = load i32, ptr %15, align 4
  %17 = or i32 %16, 2
  %18 = load ptr, ptr %2, align 8
  %19 = getelementptr inbounds nuw %struct._proto_node, ptr %18, i32 0, i32 5
  %20 = load ptr, ptr %19, align 8
  %21 = getelementptr inbounds nuw %struct.field_info, ptr %20, i32 0, i32 6
  store i32 %17, ptr %21, align 4
  br label %22

22:                                               ; preds = %11, %6
  br label %23

23:                                               ; preds = %22
  br label %24

24:                                               ; preds = %23, %1
  ret void
}

; Function Attrs: null_pointer_is_valid sspstrong uwtable
define hidden void @radius_tlv(ptr noundef %0, ptr noundef %1, ptr noundef %2, ptr noundef %3, i32 noundef %4, i32 noundef %5, ptr noundef %6) #0 {
  %8 = alloca ptr, align 8
  %9 = alloca ptr, align 8
  %10 = alloca ptr, align 8
  %11 = alloca ptr, align 8
  %12 = alloca i32, align 4
  %13 = alloca i32, align 4
  %14 = alloca ptr, align 8
  %15 = alloca i32, align 4
  %16 = alloca ptr, align 8
  %17 = alloca i32, align 4
  %18 = alloca i32, align 4
  %19 = alloca ptr, align 8
  %20 = alloca ptr, align 8
  %21 = alloca ptr, align 8
  %22 = alloca i32, align 4
  store ptr %0, ptr %8, align 8
  store ptr %1, ptr %9, align 8
  store ptr %2, ptr %10, align 8
  store ptr %3, ptr %11, align 8
  store i32 %4, ptr %12, align 4
  store i32 %5, ptr %13, align 4
  store ptr %6, ptr %14, align 8
  call void @llvm.lifetime.start.p0(i64 4, ptr %15) #17
  store i32 0, ptr %15, align 4
  br label %23

23:                                               ; preds = %128, %7
  %24 = load i32, ptr %13, align 4
  %25 = icmp sgt i32 %24, 0
  br i1 %25, label %26, label %129

26:                                               ; preds = %23
  call void @llvm.lifetime.start.p0(i64 8, ptr %16) #17
  store ptr null, ptr %16, align 8
  call void @llvm.lifetime.start.p0(i64 4, ptr %17) #17
  call void @llvm.lifetime.start.p0(i64 4, ptr %18) #17
  call void @llvm.lifetime.start.p0(i64 8, ptr %19) #17
  call void @llvm.lifetime.start.p0(i64 8, ptr %20) #17
  call void @llvm.lifetime.start.p0(i64 8, ptr %21) #17
  %27 = load i32, ptr %13, align 4
  %28 = icmp slt i32 %27, 2
  br i1 %28, label %29, label %35

29:                                               ; preds = %26
  %30 = load ptr, ptr %9, align 8
  %31 = load ptr, ptr %10, align 8
  %32 = load ptr, ptr %11, align 8
  %33 = load i32, ptr %12, align 4
  %34 = call ptr (ptr, ptr, ptr, ptr, i32, i32, ptr, ...) @proto_tree_add_expert_format(ptr noundef %30, ptr noundef %31, ptr noundef @ei_radius_invalid_length, ptr noundef %32, i32 noundef %33, i32 noundef 0, ptr noundef @.str.21)
  store i32 1, ptr %22, align 4
  br label %126

35:                                               ; preds = %26
  %36 = load ptr, ptr %11, align 8
  %37 = load i32, ptr %12, align 4
  %38 = call zeroext i8 @tvb_get_uint8(ptr noundef %36, i32 noundef %37)
  %39 = zext i8 %38 to i32
  store i32 %39, ptr %17, align 4
  %40 = load ptr, ptr %11, align 8
  %41 = load i32, ptr %12, align 4
  %42 = add i32 %41, 1
  %43 = call zeroext i8 @tvb_get_uint8(ptr noundef %40, i32 noundef %42)
  %44 = zext i8 %43 to i32
  store i32 %44, ptr %18, align 4
  %45 = load i32, ptr %18, align 4
  %46 = icmp ult i32 %45, 2
  br i1 %46, label %47, label %54

47:                                               ; preds = %35
  %48 = load ptr, ptr %9, align 8
  %49 = load ptr, ptr %10, align 8
  %50 = load ptr, ptr %11, align 8
  %51 = load i32, ptr %12, align 4
  %52 = load i32, ptr %18, align 4
  %53 = call ptr (ptr, ptr, ptr, ptr, i32, i32, ptr, ...) @proto_tree_add_expert_format(ptr noundef %48, ptr noundef %49, ptr noundef @ei_radius_invalid_length, ptr noundef %50, i32 noundef %51, i32 noundef 0, ptr noundef @.str.22, i32 noundef %52)
  store i32 1, ptr %22, align 4
  br label %126

54:                                               ; preds = %35
  %55 = load i32, ptr %13, align 4
  %56 = load i32, ptr %18, align 4
  %57 = icmp slt i32 %55, %56
  br i1 %57, label %58, label %64

58:                                               ; preds = %54
  %59 = load ptr, ptr %9, align 8
  %60 = load ptr, ptr %10, align 8
  %61 = load ptr, ptr %11, align 8
  %62 = load i32, ptr %12, align 4
  %63 = call ptr (ptr, ptr, ptr, ptr, i32, i32, ptr, ...) @proto_tree_add_expert_format(ptr noundef %59, ptr noundef %60, ptr noundef @ei_radius_invalid_length, ptr noundef %61, i32 noundef %62, i32 noundef 0, ptr noundef @.str.23)
  store i32 1, ptr %22, align 4
  br label %126

64:                                               ; preds = %54
  %65 = load i32, ptr %18, align 4
  %66 = load i32, ptr %13, align 4
  %67 = sub i32 %66, %65
  store i32 %67, ptr %13, align 4
  %68 = load ptr, ptr %8, align 8
  %69 = getelementptr inbounds nuw %struct._radius_attr_info_t, ptr %68, i32 0, i32 14
  %70 = load ptr, ptr %69, align 8
  %71 = icmp ne ptr %70, null
  br i1 %71, label %72, label %80

72:                                               ; preds = %64
  %73 = load ptr, ptr %8, align 8
  %74 = getelementptr inbounds nuw %struct._radius_attr_info_t, ptr %73, i32 0, i32 14
  %75 = load ptr, ptr %74, align 8
  %76 = load i32, ptr %17, align 4
  %77 = zext i32 %76 to i64
  %78 = inttoptr i64 %77 to ptr
  %79 = call ptr @g_hash_table_lookup(ptr noundef %75, ptr noundef %78)
  store ptr %79, ptr %16, align 8
  br label %80

80:                                               ; preds = %72, %64
  %81 = load ptr, ptr %16, align 8
  %82 = icmp ne ptr %81, null
  br i1 %82, label %84, label %83

83:                                               ; preds = %80
  store ptr @no_dictionary_entry, ptr %16, align 8
  br label %84

84:                                               ; preds = %83, %80
  %85 = load ptr, ptr %9, align 8
  %86 = load ptr, ptr %11, align 8
  %87 = load i32, ptr %12, align 4
  %88 = load i32, ptr %18, align 4
  %89 = load ptr, ptr %16, align 8
  %90 = getelementptr inbounds nuw %struct._radius_attr_info_t, ptr %89, i32 0, i32 8
  %91 = load i32, ptr %90, align 8
  %92 = load ptr, ptr %16, align 8
  %93 = getelementptr inbounds nuw %struct._radius_attr_info_t, ptr %92, i32 0, i32 0
  %94 = load ptr, ptr %93, align 8
  %95 = load i32, ptr %17, align 4
  %96 = load i32, ptr %18, align 4
  %97 = call ptr (ptr, ptr, i32, i32, i32, ptr, ptr, ...) @proto_tree_add_subtree_format(ptr noundef %85, ptr noundef %86, i32 noundef %87, i32 noundef %88, i32 noundef %91, ptr noundef %19, ptr noundef @.str.24, ptr noundef %94, i32 noundef %95, i32 noundef %96)
  store ptr %97, ptr %21, align 8
  %98 = load i32, ptr %18, align 4
  %99 = sub i32 %98, 2
  store i32 %99, ptr %18, align 4
  %100 = load i32, ptr %12, align 4
  %101 = add i32 %100, 2
  store i32 %101, ptr %12, align 4
  %102 = load i8, ptr @show_length, align 1, !range !6, !noundef !7
  %103 = trunc i8 %102 to i1
  br i1 %103, label %104, label %113

104:                                              ; preds = %84
  %105 = load ptr, ptr %21, align 8
  %106 = load ptr, ptr %16, align 8
  %107 = getelementptr inbounds nuw %struct._radius_attr_info_t, ptr %106, i32 0, i32 13
  %108 = load i32, ptr %107, align 4
  %109 = load ptr, ptr %11, align 8
  %110 = load i32, ptr %18, align 4
  %111 = call ptr @proto_tree_add_uint(ptr noundef %105, i32 noundef %108, ptr noundef %109, i32 noundef 0, i32 noundef 0, i32 noundef %110)
  store ptr %111, ptr %20, align 8
  %112 = load ptr, ptr %20, align 8
  call void @proto_item_set_generated(ptr noundef %112)
  br label %113

113:                                              ; preds = %104, %84
  %114 = load ptr, ptr %21, align 8
  %115 = load ptr, ptr %19, align 8
  %116 = load ptr, ptr %10, align 8
  %117 = load ptr, ptr %11, align 8
  %118 = load ptr, ptr %16, align 8
  %119 = load i32, ptr %18, align 4
  %120 = load i32, ptr %12, align 4
  call void @add_tlv_to_tree(ptr noundef %114, ptr noundef %115, ptr noundef %116, ptr noundef %117, ptr noundef %118, i32 noundef %119, i32 noundef %120)
  %121 = load i32, ptr %18, align 4
  %122 = load i32, ptr %12, align 4
  %123 = add i32 %122, %121
  store i32 %123, ptr %12, align 4
  %124 = load i32, ptr %15, align 4
  %125 = add i32 %124, 1
  store i32 %125, ptr %15, align 4
  store i32 0, ptr %22, align 4
  br label %126

126:                                              ; preds = %113, %58, %47, %29
  call void @llvm.lifetime.end.p0(i64 8, ptr %21) #17
  call void @llvm.lifetime.end.p0(i64 8, ptr %20) #17
  call void @llvm.lifetime.end.p0(i64 8, ptr %19) #17
  call void @llvm.lifetime.end.p0(i64 4, ptr %18) #17
  call void @llvm.lifetime.end.p0(i64 4, ptr %17) #17
  call void @llvm.lifetime.end.p0(i64 8, ptr %16) #17
  %127 = load i32, ptr %22, align 4
  switch i32 %127, label %132 [
    i32 0, label %128
  ]

128:                                              ; preds = %126
  br label %23, !llvm.loop !8

129:                                              ; preds = %23
  %130 = load ptr, ptr %14, align 8
  %131 = load i32, ptr %15, align 4
  call void (ptr, ptr, ...) @proto_item_append_text(ptr noundef %130, ptr noundef @.str.25, i32 noundef %131)
  store i32 0, ptr %22, align 4
  br label %132

132:                                              ; preds = %129, %126
  call void @llvm.lifetime.end.p0(i64 4, ptr %15) #17
  %133 = load i32, ptr %22, align 4
  switch i32 %133, label %135 [
    i32 0, label %134
    i32 1, label %134
  ]

134:                                              ; preds = %132, %132
  ret void

135:                                              ; preds = %132
  unreachable
}